target datalayout = "e-m:e-p270:32:32-p271:32:32-p272:64:64-i64:64-i128:128-f80:128-n8:16:32:64-S128"
target triple = "x86_64-pc-linux-gnu"

%struct.GCtab = type { %struct.GCRef, i8, i8, i8, i8, %struct.MRef, %struct.GCRef, %struct.GCRef, %struct.MRef, i32, i32, %struct.MRef }
%struct.GCRef = type { i64 }
%struct.MRef = type { i64 }
%struct.Node = type { %union.TValue, %union.TValue, %struct.MRef }
%union.TValue = type { i64 }

@.str = private unnamed_addr constant [23 x i8] c"copy of dead GC object\00", align 1

; Function Attrs: alwaysinline nounwind uwtable
define internal void @checklivetv(ptr noundef %0, ptr noundef %1, ptr noundef %2) #2 {
  %4 = alloca ptr, align 8
  %5 = alloca ptr, align 8
  %6 = alloca ptr, align 8
  store ptr %0, ptr %4, align 8, !tbaa !4
  store ptr %1, ptr %5, align 8, !tbaa !31
  store ptr %2, ptr %6, align 8, !tbaa !89
  ret void
}

; Function Attrs: alwaysinline nounwind uwtable
define internal void @copyTV(ptr noundef %0, ptr noundef %1, ptr noundef %2) #2 {
  %4 = alloca ptr, align 8
  %5 = alloca ptr, align 8
  %6 = alloca ptr, align 8
  store ptr %0, ptr %4, align 8, !tbaa !4
  store ptr %1, ptr %5, align 8, !tbaa !31
  store ptr %2, ptr %6, align 8, !tbaa !31
  %7 = load ptr, ptr %5, align 8, !tbaa !31
  %8 = load ptr, ptr %6, align 8, !tbaa !31
  call void @llvm.memcpy.p0.p0.i64(ptr align 8 %7, ptr align 8 %8, i64 8, i1 false), !tbaa.struct !40
  %9 = load ptr, ptr %4, align 8, !tbaa !4
  %10 = load ptr, ptr %5, align 8, !tbaa !31
  call void @checklivetv(ptr noundef %9, ptr noundef %10, ptr noundef @.str)
  ret void
}

; Function Attrs: nounwind uwtable
define hidden ptr @lj_tab_dup(ptr noundef %0, ptr noundef %1) #0 {
  %3 = alloca ptr, align 8
  %4 = alloca ptr, align 8
  %5 = alloca ptr, align 8
  %6 = alloca i32, align 4
  %7 = alloca i32, align 4
  %8 = alloca ptr, align 8
  %9 = alloca ptr, align 8
  %10 = alloca i32, align 4
  %11 = alloca i32, align 4
  %12 = alloca ptr, align 8
  %13 = alloca ptr, align 8
  %14 = alloca i64, align 8
  %15 = alloca ptr, align 8
  %16 = alloca ptr, align 8
  %17 = alloca ptr, align 8
  store ptr %0, ptr %3, align 8, !tbaa !4
  store ptr %1, ptr %4, align 8, !tbaa !11
  call void @llvm.lifetime.start.p0(i64 8, ptr %5) #9
  call void @llvm.lifetime.start.p0(i64 4, ptr %6) #9
  call void @llvm.lifetime.start.p0(i64 4, ptr %7) #9
  %18 = load ptr, ptr %3, align 8, !tbaa !4
  %19 = load ptr, ptr %4, align 8, !tbaa !11
  %20 = getelementptr inbounds nuw %struct.GCtab, ptr %19, i32 0, i32 9
  %21 = load i32, ptr %20, align 8, !tbaa !23
  %22 = load ptr, ptr %4, align 8, !tbaa !11
  %23 = getelementptr inbounds nuw %struct.GCtab, ptr %22, i32 0, i32 10
  %24 = load i32, ptr %23, align 4, !tbaa !13
  %25 = icmp ugt i32 %24, 0
  br i1 %25, label %26, label %33

26:                                               ; preds = %2
  %27 = load ptr, ptr %4, align 8, !tbaa !11
  %28 = getelementptr inbounds nuw %struct.GCtab, ptr %27, i32 0, i32 10
  %29 = load i32, ptr %28, align 4, !tbaa !13
  %30 = call i32 @llvm.ctlz.i32(i32 %29, i1 true)
  %31 = xor i32 %30, 31
  %32 = add i32 %31, 1
  br label %34

33:                                               ; preds = %2
  br label %34

34:                                               ; preds = %33, %26
  %35 = phi i32 [ %32, %26 ], [ 0, %33 ]
  %36 = call ptr @newtab(ptr noundef %18, i32 noundef %21, i32 noundef %35)
  store ptr %36, ptr %5, align 8, !tbaa !11
  %37 = load ptr, ptr %5, align 8, !tbaa !11
  %38 = getelementptr inbounds nuw %struct.GCtab, ptr %37, i32 0, i32 3
  store i8 0, ptr %38, align 2, !tbaa !19
  %39 = load ptr, ptr %4, align 8, !tbaa !11
  %40 = getelementptr inbounds nuw %struct.GCtab, ptr %39, i32 0, i32 9
  %41 = load i32, ptr %40, align 8, !tbaa !23
  store i32 %41, ptr %6, align 4, !tbaa !9
  %42 = load i32, ptr %6, align 4, !tbaa !9
  %43 = icmp ugt i32 %42, 0
  br i1 %43, label %44, label %83

44:                                               ; preds = %34
  call void @llvm.lifetime.start.p0(i64 8, ptr %8) #9
  %45 = load ptr, ptr %5, align 8, !tbaa !11
  %46 = getelementptr inbounds nuw %struct.GCtab, ptr %45, i32 0, i32 5
  %47 = getelementptr inbounds nuw %struct.MRef, ptr %46, i32 0, i32 0
  %48 = load i64, ptr %47, align 8, !tbaa !21
  %49 = inttoptr i64 %48 to ptr
  store ptr %49, ptr %8, align 8, !tbaa !31
  call void @llvm.lifetime.start.p0(i64 8, ptr %9) #9
  %50 = load ptr, ptr %4, align 8, !tbaa !11
  %51 = getelementptr inbounds nuw %struct.GCtab, ptr %50, i32 0, i32 5
  %52 = getelementptr inbounds nuw %struct.MRef, ptr %51, i32 0, i32 0
  %53 = load i64, ptr %52, align 8, !tbaa !21
  %54 = inttoptr i64 %53 to ptr
  store ptr %54, ptr %9, align 8, !tbaa !31
  %55 = load i32, ptr %6, align 4, !tbaa !9
  %56 = icmp ult i32 %55, 64
  br i1 %56, label %57, label %76

57:                                               ; preds = %44
  call void @llvm.lifetime.start.p0(i64 4, ptr %10) #9
  store i32 0, ptr %10, align 4, !tbaa !9
  br label %58

58:                                               ; preds = %72, %57
  %59 = load i32, ptr %10, align 4, !tbaa !9
  %60 = load i32, ptr %6, align 4, !tbaa !9
  %61 = icmp ult i32 %59, %60
  br i1 %61, label %62, label %75

62:                                               ; preds = %58
  %63 = load ptr, ptr %3, align 8, !tbaa !4
  %64 = load ptr, ptr %8, align 8, !tbaa !31
  %65 = load i32, ptr %10, align 4, !tbaa !9
  %66 = zext i32 %65 to i64
  %67 = getelementptr inbounds nuw %union.TValue, ptr %64, i64 %66
  %68 = load ptr, ptr %9, align 8, !tbaa !31
  %69 = load i32, ptr %10, align 4, !tbaa !9
  %70 = zext i32 %69 to i64
  %71 = getelementptr inbounds nuw %union.TValue, ptr %68, i64 %70
  call void @copyTV(ptr noundef %63, ptr noundef %67, ptr noundef %71)
  br label %72

72:                                               ; preds = %62
  %73 = load i32, ptr %10, align 4, !tbaa !9
  %74 = add i32 %73, 1
  store i32 %74, ptr %10, align 4, !tbaa !9
  br label %58, !llvm.loop !38

75:                                               ; preds = %58
  call void @llvm.lifetime.end.p0(i64 4, ptr %10) #9
  br label %82

76:                                               ; preds = %44
  %77 = load ptr, ptr %8, align 8, !tbaa !31
  %78 = load ptr, ptr %9, align 8, !tbaa !31
  %79 = load i32, ptr %6, align 4, !tbaa !9
  %80 = zext i32 %79 to i64
  %81 = mul i64 %80, 8
  call void @llvm.memcpy.p0.p0.i64(ptr align 8 %77, ptr align 8 %78, i64 %81, i1 false)
  br label %82

82:                                               ; preds = %76, %75
  call void @llvm.lifetime.end.p0(i64 8, ptr %9) #9
  call void @llvm.lifetime.end.p0(i64 8, ptr %8) #9
  br label %83

83:                                               ; preds = %82, %34
  %84 = load ptr, ptr %4, align 8, !tbaa !11
  %85 = getelementptr inbounds nuw %struct.GCtab, ptr %84, i32 0, i32 10
  %86 = load i32, ptr %85, align 4, !tbaa !13
  store i32 %86, ptr %7, align 4, !tbaa !9
  %87 = load i32, ptr %7, align 4, !tbaa !9
  %88 = icmp ugt i32 %87, 0
  br i1 %88, label %89, label %160

89:                                               ; preds = %83
  call void @llvm.lifetime.start.p0(i64 4, ptr %11) #9
  call void @llvm.lifetime.start.p0(i64 8, ptr %12) #9
  %90 = load ptr, ptr %5, align 8, !tbaa !11
  %91 = getelementptr inbounds nuw %struct.GCtab, ptr %90, i32 0, i32 8
  %92 = getelementptr inbounds nuw %struct.MRef, ptr %91, i32 0, i32 0
  %93 = load i64, ptr %92, align 8, !tbaa !29
  %94 = inttoptr i64 %93 to ptr
  store ptr %94, ptr %12, align 8, !tbaa !27
  call void @llvm.lifetime.start.p0(i64 8, ptr %13) #9
  %95 = load ptr, ptr %4, align 8, !tbaa !11
  %96 = getelementptr inbounds nuw %struct.GCtab, ptr %95, i32 0, i32 8
  %97 = getelementptr inbounds nuw %struct.MRef, ptr %96, i32 0, i32 0
  %98 = load i64, ptr %97, align 8, !tbaa !29
  %99 = inttoptr i64 %98 to ptr
  store ptr %99, ptr %13, align 8, !tbaa !27
  call void @llvm.lifetime.start.p0(i64 8, ptr %14) #9
  %100 = load ptr, ptr %12, align 8, !tbaa !27
  %101 = load ptr, ptr %13, align 8, !tbaa !27
  %102 = ptrtoint ptr %100 to i64
  %103 = ptrtoint ptr %101 to i64
  %104 = sub i64 %102, %103
  store i64 %104, ptr %14, align 8, !tbaa !39
  %105 = load ptr, ptr %4, align 8, !tbaa !11
  %106 = getelementptr inbounds nuw %struct.GCtab, ptr %105, i32 0, i32 11
  %107 = getelementptr inbounds nuw %struct.MRef, ptr %106, i32 0, i32 0
  %108 = load i64, ptr %107, align 8, !tbaa !30
  %109 = inttoptr i64 %108 to ptr
  %110 = load i64, ptr %14, align 8, !tbaa !39
  %111 = getelementptr inbounds i8, ptr %109, i64 %110
  %112 = ptrtoint ptr %111 to i64
  %113 = load ptr, ptr %5, align 8, !tbaa !11
  %114 = getelementptr inbounds nuw %struct.GCtab, ptr %113, i32 0, i32 11
  %115 = getelementptr inbounds nuw %struct.MRef, ptr %114, i32 0, i32 0
  store i64 %112, ptr %115, align 8, !tbaa !30
  store i32 0, ptr %11, align 4, !tbaa !9
  br label %116

116:                                              ; preds = %156, %89
  %117 = load i32, ptr %11, align 4, !tbaa !9
  %118 = load i32, ptr %7, align 4, !tbaa !9
  %119 = icmp ule i32 %117, %118
  br i1 %119, label %120, label %159

120:                                              ; preds = %116
  call void @llvm.lifetime.start.p0(i64 8, ptr %15) #9
  %121 = load ptr, ptr %13, align 8, !tbaa !27
  %122 = load i32, ptr %11, align 4, !tbaa !9
  %123 = zext i32 %122 to i64
  %124 = getelementptr inbounds nuw %struct.Node, ptr %121, i64 %123
  store ptr %124, ptr %15, align 8, !tbaa !27
  call void @llvm.lifetime.start.p0(i64 8, ptr %16) #9
  %125 = load ptr, ptr %12, align 8, !tbaa !27
  %126 = load i32, ptr %11, align 4, !tbaa !9
  %127 = zext i32 %126 to i64
  %128 = getelementptr inbounds nuw %struct.Node, ptr %125, i64 %127
  store ptr %128, ptr %16, align 8, !tbaa !27
  call void @llvm.lifetime.start.p0(i64 8, ptr %17) #9
  %129 = load ptr, ptr %15, align 8, !tbaa !27
  %130 = getelementptr inbounds nuw %struct.Node, ptr %129, i32 0, i32 2
  %131 = getelementptr inbounds nuw %struct.MRef, ptr %130, i32 0, i32 0
  %132 = load i64, ptr %131, align 8, !tbaa !35
  %133 = inttoptr i64 %132 to ptr
  store ptr %133, ptr %17, align 8, !tbaa !27
  %134 = load ptr, ptr %16, align 8, !tbaa !27
  %135 = getelementptr inbounds nuw %struct.Node, ptr %134, i32 0, i32 0
  %136 = load ptr, ptr %15, align 8, !tbaa !27
  %137 = getelementptr inbounds nuw %struct.Node, ptr %136, i32 0, i32 0
  call void @llvm.memcpy.p0.p0.i64(ptr align 8 %135, ptr align 8 %137, i64 8, i1 false), !tbaa.struct !40
  %138 = load ptr, ptr %16, align 8, !tbaa !27
  %139 = getelementptr inbounds nuw %struct.Node, ptr %138, i32 0, i32 1
  %140 = load ptr, ptr %15, align 8, !tbaa !27
  %141 = getelementptr inbounds nuw %struct.Node, ptr %140, i32 0, i32 1
  call void @llvm.memcpy.p0.p0.i64(ptr align 8 %139, ptr align 8 %141, i64 8, i1 false), !tbaa.struct !40
  %142 = load ptr, ptr %17, align 8, !tbaa !27
  %143 = icmp eq ptr %142, null
  br i1 %143, label %144, label %146

144:                                              ; preds = %120
  %145 = load ptr, ptr %17, align 8, !tbaa !27
  br label %150

146:                                              ; preds = %120
  %147 = load ptr, ptr %17, align 8, !tbaa !27
  %148 = load i64, ptr %14, align 8, !tbaa !39
  %149 = getelementptr inbounds i8, ptr %147, i64 %148
  br label %150

150:                                              ; preds = %146, %144
  %151 = phi ptr [ %145, %144 ], [ %149, %146 ]
  %152 = ptrtoint ptr %151 to i64
  %153 = load ptr, ptr %16, align 8, !tbaa !27
  %154 = getelementptr inbounds nuw %struct.Node, ptr %153, i32 0, i32 2
  %155 = getelementptr inbounds nuw %struct.MRef, ptr %154, i32 0, i32 0
  store i64 %152, ptr %155, align 8, !tbaa !35
  call void @llvm.lifetime.end.p0(i64 8, ptr %17) #9
  call void @llvm.lifetime.end.p0(i64 8, ptr %16) #9
  call void @llvm.lifetime.end.p0(i64 8, ptr %15) #9
  br label %156

156:                                              ; preds = %150
  %157 = load i32, ptr %11, align 4, !tbaa !9
  %158 = add i32 %157, 1
  store i32 %158, ptr %11, align 4, !tbaa !9
  br label %116, !llvm.loop !41

159:                                              ; preds = %116
  call void @llvm.lifetime.end.p0(i64 8, ptr %14) #9
  call void @llvm.lifetime.end.p0(i64 8, ptr %13) #9
  call void @llvm.lifetime.end.p0(i64 8, ptr %12) #9
  call void @llvm.lifetime.end.p0(i64 4, ptr %11) #9
  br label %160

160:                                              ; preds = %159, %83
  %161 = load ptr, ptr %5, align 8, !tbaa !11
  call void @llvm.lifetime.end.p0(i64 4, ptr %7) #9
  call void @llvm.lifetime.end.p0(i64 4, ptr %6) #9
  call void @llvm.lifetime.end.p0(i64 8, ptr %5) #9
  ret ptr %161
}