; Function Attrs: nounwind uwtable
define hidden ptr @lj_tab_dup(ptr noundef %0, ptr noundef readonly captures(none) %1) local_unnamed_addr #0 {
  %3 = getelementptr inbounds nuw i8, ptr %1, i64 48
  %4 = load i32, ptr %3, align 8, !tbaa !4
  %5 = getelementptr inbounds nuw i8, ptr %1, i64 52
  %6 = load i32, ptr %5, align 4, !tbaa !14
  %.not = icmp eq i32 %6, 0
  %7 = tail call range(i32 0, 33) i32 @llvm.ctlz.i32(i32 %6, i1 true)
  %8 = sub nuw nsw i32 32, %7
  %9 = select i1 %.not, i32 0, i32 %8
  %10 = tail call fastcc ptr @newtab(ptr noundef %0, i32 noundef %4, i32 noundef %9)
  %11 = getelementptr inbounds nuw i8, ptr %10, i64 10
  store i8 0, ptr %11, align 2, !tbaa !21
  %12 = load i32, ptr %3, align 8, !tbaa !4
  %.not51 = icmp eq i32 %12, 0
  br i1 %.not51, label %.loopexit54, label %13

13:                                               ; preds = %2
  %14 = getelementptr inbounds nuw i8, ptr %10, i64 16
  %15 = load i64, ptr %14, align 8, !tbaa !12
  %16 = inttoptr i64 %15 to ptr
  %17 = getelementptr inbounds nuw i8, ptr %1, i64 16
  %18 = load i64, ptr %17, align 8, !tbaa !12
  %19 = inttoptr i64 %18 to ptr
  %20 = icmp ult i32 %12, 64
  %wide.trip.count = zext i32 %12 to i64
  br i1 %20, label %.preheader, label %24

.preheader:                                       ; preds = %13, %.preheader
  %indvars.iv = phi i64 [ %indvars.iv.next, %.preheader ], [ 0, %13 ]
  %21 = getelementptr inbounds nuw %union.TValue, ptr %16, i64 %indvars.iv
  %22 = getelementptr inbounds nuw %union.TValue, ptr %19, i64 %indvars.iv
  %23 = load i64, ptr %22, align 8, !tbaa !13
  store i64 %23, ptr %21, align 8, !tbaa !13
  %indvars.iv.next = add nuw nsw i64 %indvars.iv, 1
  %exitcond.not = icmp eq i64 %indvars.iv.next, %wide.trip.count
  br i1 %exitcond.not, label %.loopexit54, label %.preheader, !llvm.loop !29

24:                                               ; preds = %13
  %25 = shl nuw nsw i64 %wide.trip.count, 3
  tail call void @llvm.memcpy.p0.p0.i64(ptr align 8 %16, ptr align 8 %19, i64 %25, i1 false)
  br label %.loopexit54

.loopexit54:                                      ; preds = %.preheader, %24, %2
  %26 = load i32, ptr %5, align 4, !tbaa !14
  %.not52 = icmp eq i32 %26, 0
  br i1 %.not52, label %.loopexit, label %27

27:                                               ; preds = %.loopexit54
  %28 = getelementptr inbounds nuw i8, ptr %10, i64 40
  %29 = load i64, ptr %28, align 8, !tbaa !15
  %30 = inttoptr i64 %29 to ptr
  %31 = getelementptr inbounds nuw i8, ptr %1, i64 40
  %32 = load i64, ptr %31, align 8, !tbaa !15
  %33 = inttoptr i64 %32 to ptr
  %34 = sub i64 %29, %32
  %35 = getelementptr inbounds nuw i8, ptr %1, i64 56
  %36 = load i64, ptr %35, align 8, !tbaa !28
  %37 = add i64 %36, %34
  %38 = getelementptr inbounds nuw i8, ptr %10, i64 56
  store i64 %37, ptr %38, align 8, !tbaa !28
  %39 = add i32 %26, 1
  %umax = tail call i32 @llvm.umax.i32(i32 %39, i32 1)
  %wide.trip.count61 = zext i32 %umax to i64
  br label %40

40:                                               ; preds = %27, %40
  %indvars.iv58 = phi i64 [ 0, %27 ], [ %indvars.iv.next59, %40 ]
  %41 = getelementptr inbounds nuw %struct.Node, ptr %33, i64 %indvars.iv58
  %42 = getelementptr inbounds nuw %struct.Node, ptr %30, i64 %indvars.iv58
  %43 = getelementptr inbounds nuw i8, ptr %41, i64 16
  %44 = load i64, ptr %43, align 8, !tbaa !16
  %45 = load i64, ptr %41, align 8, !tbaa !13
  store i64 %45, ptr %42, align 8, !tbaa !13
  %46 = getelementptr inbounds nuw i8, ptr %42, i64 8
  %47 = getelementptr inbounds nuw i8, ptr %41, i64 8
  %48 = load i64, ptr %47, align 8, !tbaa !13
  store i64 %48, ptr %46, align 8, !tbaa !13
  %49 = icmp eq i64 %44, 0
  %50 = add i64 %44, %34
  %51 = select i1 %49, i64 0, i64 %50
  %52 = getelementptr inbounds nuw i8, ptr %42, i64 16
  store i64 %51, ptr %52, align 8, !tbaa !16
  %indvars.iv.next59 = add nuw nsw i64 %indvars.iv58, 1
  %exitcond62 = icmp eq i64 %indvars.iv.next59, %wide.trip.count61
  br i1 %exitcond62, label %.loopexit, label %40, !llvm.loop !30

.loopexit:                                        ; preds = %40, %.loopexit54
  ret ptr %10
}